; Function Attrs: mustprogress uwtable
define i64 @_ZN4LIEF5MachO7Builder5buildEv(ptr noundef nonnull align 8 dereferenceable(137) %0) local_unnamed_addr #3 align 2 {
  %2 = getelementptr inbounds i8, ptr %0, i64 24
  %3 = load ptr, ptr %2, align 8
  %4 = getelementptr inbounds i8, ptr %3, i64 24
  %5 = load i8, ptr %4, align 8
  %6 = and i8 %5, 1
  %.not = icmp eq i8 %6, 0
  br i1 %.not, label %9, label %7

7:                                                ; preds = %1
  %8 = tail call i64 @_ZN4LIEF5MachO7Builder5buildINS0_7details7MachO64EEEN2tl8expectedINS_4ok_tE11lief_errorsEEv(ptr noundef nonnull align 8 dereferenceable(137) %0)
  br label %11

9:                                                ; preds = %1
  %10 = tail call i64 @_ZN4LIEF5MachO7Builder5buildINS0_7details7MachO32EEEN2tl8expectedINS_4ok_tE11lief_errorsEEv(ptr noundef nonnull align 8 dereferenceable(137) %0)
  br label %11

11:                                               ; preds = %9, %7
  %.sroa.0.0 = phi i64 [ %8, %7 ], [ %10, %9 ]
  ret i64 %.sroa.0.0
}